; Function Attrs: mustprogress nounwind uwtable
define dso_local noundef ptr @_ZN4node7tracing15NodeTraceBuffer16GetEventByHandleEm(ptr nocapture noundef nonnull readonly align 8 dereferenceable(584) %this, i64 noundef %handle) unnamed_addr #0 align 2 {
entry:
  %current_buf_ = getelementptr inbounds i8, ptr %this, i64 368
  %0 = load atomic i64, ptr %current_buf_ seq_cst, align 8
  %atomic-temp.i.0.i = inttoptr i64 %0 to ptr
  tail call void @uv_mutex_lock(ptr noundef nonnull %atomic-temp.i.0.i) #13
  %cmp.i = icmp eq i64 %handle, 0
  br i1 %cmp.i, label %_ZN4node7tracing19InternalTraceBuffer16GetEventByHandleEm.exit, label %if.end.i

if.end.i:                                         ; preds = %entry
  %1 = trunc i64 %handle to i32
  %conv.i.i = and i32 %1, 1
  %shr.i.i = lshr i64 %handle, 1
  %max_chunks_.i.i.i = getelementptr inbounds i8, ptr %atomic-temp.i.0.i, i64 48
  %2 = load i64, ptr %max_chunks_.i.i.i, align 8
  %mul.i.i.i = shl i64 %2, 6
  %rem.i.i = urem i64 %shr.i.i, %mul.i.i.i
  %div.i.i = udiv i64 %shr.i.i, %mul.i.i.i
  %div45.i.i = lshr i64 %rem.i.i, 6
  %rem5.i.i = and i64 %rem.i.i, 63
  %id_.i = getelementptr inbounds i8, ptr %atomic-temp.i.0.i, i64 100
  %3 = load i32, ptr %id_.i, align 4
  %cmp2.not.i = icmp eq i32 %conv.i.i, %3
  %total_chunks_.i = getelementptr inbounds i8, ptr %atomic-temp.i.0.i, i64 88
  %4 = load i64, ptr %total_chunks_.i, align 8
  %cmp3.not.i = icmp ult i64 %div45.i.i, %4
  %or.cond.i = select i1 %cmp2.not.i, i1 %cmp3.not.i, i1 false
  br i1 %or.cond.i, label %if.end5.i, label %_ZN4node7tracing19InternalTraceBuffer16GetEventByHandleEm.exit

if.end5.i:                                        ; preds = %if.end.i
  %conv2.i.i = trunc i64 %div.i.i to i32
  %chunks_.i = getelementptr inbounds i8, ptr %atomic-temp.i.0.i, i64 64
  %5 = load ptr, ptr %chunks_.i, align 8
  %add.ptr.i.i = getelementptr inbounds %"class.std::unique_ptr.2", ptr %5, i64 %div45.i.i
  %6 = load ptr, ptr %add.ptr.i.i, align 8
  %seq_.i.i = getelementptr inbounds i8, ptr %6, i64 10760
  %7 = load i32, ptr %seq_.i.i, align 8
  %cmp8.not.i = icmp eq i32 %7, %conv2.i.i
  br i1 %cmp8.not.i, label %if.end10.i, label %_ZN4node7tracing19InternalTraceBuffer16GetEventByHandleEm.exit

if.end10.i:                                       ; preds = %if.end5.i
  %chunk_.i.i = getelementptr inbounds i8, ptr %6, i64 8
  %arrayidx.i.i = getelementptr inbounds [64 x %"class.v8::platform::tracing::TraceObject"], ptr %chunk_.i.i, i64 0, i64 %rem5.i.i
  br label %_ZN4node7tracing19InternalTraceBuffer16GetEventByHandleEm.exit

_ZN4node7tracing19InternalTraceBuffer16GetEventByHandleEm.exit: ; preds = %entry, %if.end.i, %if.end5.i, %if.end10.i
  %retval.0.i = phi ptr [ %arrayidx.i.i, %if.end10.i ], [ null, %entry ], [ null, %if.end.i ], [ null, %if.end5.i ]
  tail call void @uv_mutex_unlock(ptr noundef nonnull %atomic-temp.i.0.i) #13
  ret ptr %retval.0.i
}